; Function Attrs: nounwind uwtable
define noalias noundef ptr @Gia_ManTreeDup(ptr noundef readonly captures(none) %0) local_unnamed_addr #0 {
  %2 = tail call noalias dereferenceable_or_null(528) ptr @calloc(i64 noundef 1, i64 noundef 528) #21
  tail call void @llvm.memcpy.p0.p0.i64(ptr noundef nonnull align 8 dereferenceable(528) %2, ptr noundef nonnull align 8 dereferenceable(528) %0, i64 528, i1 false), !tbaa.struct !3
  %3 = getelementptr inbounds nuw i8, ptr %2, i64 520
  %4 = load ptr, ptr %3, align 8, !tbaa !12
  %5 = getelementptr inbounds nuw i8, ptr %0, i64 4
  %6 = load i32, ptr %5, align 4, !tbaa !14
  %7 = load i32, ptr %0, align 8, !tbaa !15
  %8 = tail call i32 @llvm.smax.i32(i32 %7, i32 6)
  %9 = add nsw i32 %8, -6
  %10 = shl i32 %6, %9
  %11 = sext i32 %10 to i64
  %12 = shl nsw i64 %11, 3
  %13 = tail call noalias ptr @malloc(i64 noundef %12) #22
  %14 = icmp sgt i32 %10, 0
  br i1 %14, label %.lr.ph18.preheader.i.i, label %Abc_TtDup.exit

.lr.ph18.preheader.i.i:                           ; preds = %1
  %wide.trip.count24.i.i = zext nneg i32 %10 to i64
  %15 = shl nuw nsw i64 %wide.trip.count24.i.i, 3
  tail call void @llvm.memcpy.p0.p0.i64(ptr align 8 %13, ptr readonly align 8 %4, i64 %15, i1 false), !tbaa !16
  br label %Abc_TtDup.exit

Abc_TtDup.exit:                                   ; preds = %1, %.lr.ph18.preheader.i.i
  store ptr %13, ptr %3, align 8, !tbaa !12
  %16 = getelementptr inbounds nuw i8, ptr %2, i64 264
  tail call void @llvm.memset.p0.i64(ptr noundef nonnull align 8 dereferenceable(256) %16, i8 0, i64 256, i1 false)
  %17 = getelementptr inbounds nuw i8, ptr %0, i64 264
  br label %.preheader

.preheader:                                       ; preds = %Abc_TtDup.exit, %.critedge
  %indvars.iv25 = phi i64 [ 0, %Abc_TtDup.exit ], [ %indvars.iv.next26, %.critedge ]
  %18 = getelementptr inbounds nuw %struct.Vec_Int_t_, ptr %17, i64 %indvars.iv25
  %19 = getelementptr i8, ptr %18, i64 4
  %.val21 = load i32, ptr %19, align 4, !tbaa !18
  %20 = icmp sgt i32 %.val21, 0
  br i1 %20, label %.lr.ph, label %.critedge

.lr.ph:                                           ; preds = %.preheader
  %21 = getelementptr i8, ptr %18, i64 8
  %22 = getelementptr inbounds nuw %struct.Vec_Int_t_, ptr %16, i64 %indvars.iv25
  %23 = getelementptr inbounds nuw i8, ptr %22, i64 4
  %.phi.trans.insert.i = getelementptr inbounds nuw i8, ptr %22, i64 8
  br label %24

24:                                               ; preds = %.lr.ph, %Vec_IntPush.exit
  %indvars.iv = phi i64 [ 0, %.lr.ph ], [ %indvars.iv.next, %Vec_IntPush.exit ]
  %.val20 = load ptr, ptr %21, align 8, !tbaa !21
  %25 = getelementptr inbounds nuw i32, ptr %.val20, i64 %indvars.iv
  %26 = load i32, ptr %25, align 4, !tbaa !4
  %27 = load i32, ptr %23, align 4, !tbaa !18
  %28 = load i32, ptr %22, align 8, !tbaa !22
  %29 = icmp eq i32 %27, %28
  br i1 %29, label %30, label %.Vec_IntGrow.exit10_crit_edge.i

.Vec_IntGrow.exit10_crit_edge.i:                  ; preds = %24
  %.pre.i = load ptr, ptr %.phi.trans.insert.i, align 8, !tbaa !21
  br label %Vec_IntPush.exit

30:                                               ; preds = %24
  %31 = icmp slt i32 %27, 16
  br i1 %31, label %32, label %39

32:                                               ; preds = %30
  %33 = load ptr, ptr %.phi.trans.insert.i, align 8, !tbaa !21
  %.not9.i.i = icmp eq ptr %33, null
  br i1 %.not9.i.i, label %36, label %34

34:                                               ; preds = %32
  %35 = tail call dereferenceable_or_null(64) ptr @realloc(ptr noundef nonnull %33, i64 noundef 64) #23
  br label %Vec_IntGrow.exit.i

36:                                               ; preds = %32
  %37 = tail call noalias dereferenceable_or_null(64) ptr @malloc(i64 noundef 64) #22
  br label %Vec_IntGrow.exit.i

Vec_IntGrow.exit.i:                               ; preds = %36, %34
  %38 = phi ptr [ %35, %34 ], [ %37, %36 ]
  store ptr %38, ptr %.phi.trans.insert.i, align 8, !tbaa !21
  store i32 16, ptr %22, align 8, !tbaa !22
  br label %Vec_IntPush.exit

39:                                               ; preds = %30
  %40 = shl nuw nsw i32 %27, 1
  %41 = load ptr, ptr %.phi.trans.insert.i, align 8, !tbaa !21
  %.not9.i9.i = icmp eq ptr %41, null
  %42 = zext nneg i32 %40 to i64
  %43 = shl nuw nsw i64 %42, 2
  br i1 %.not9.i9.i, label %46, label %44

44:                                               ; preds = %39
  %45 = tail call ptr @realloc(ptr noundef nonnull %41, i64 noundef %43) #23
  br label %48

46:                                               ; preds = %39
  %47 = tail call noalias ptr @malloc(i64 noundef %43) #22
  br label %48

48:                                               ; preds = %46, %44
  %49 = phi ptr [ %45, %44 ], [ %47, %46 ]
  store ptr %49, ptr %.phi.trans.insert.i, align 8, !tbaa !21
  store i32 %40, ptr %22, align 8, !tbaa !22
  br label %Vec_IntPush.exit

Vec_IntPush.exit:                                 ; preds = %.Vec_IntGrow.exit10_crit_edge.i, %Vec_IntGrow.exit.i, %48
  %50 = phi ptr [ %.pre.i, %.Vec_IntGrow.exit10_crit_edge.i ], [ %49, %48 ], [ %38, %Vec_IntGrow.exit.i ]
  %51 = add nsw i32 %27, 1
  store i32 %51, ptr %23, align 4, !tbaa !18
  %52 = sext i32 %27 to i64
  %53 = getelementptr inbounds i32, ptr %50, i64 %52
  store i32 %26, ptr %53, align 4, !tbaa !4
  %indvars.iv.next = add nuw nsw i64 %indvars.iv, 1
  %.val = load i32, ptr %19, align 4, !tbaa !18
  %54 = sext i32 %.val to i64
  %55 = icmp slt i64 %indvars.iv.next, %54
  br i1 %55, label %24, label %.critedge, !llvm.loop !23

.critedge:                                        ; preds = %Vec_IntPush.exit, %.preheader
  %indvars.iv.next26 = add nuw nsw i64 %indvars.iv25, 1
  %exitcond.not = icmp eq i64 %indvars.iv.next26, 16
  br i1 %exitcond.not, label %56, label %.preheader, !llvm.loop !25

56:                                               ; preds = %.critedge
  ret ptr %2
}